; Function Attrs: nounwind uwtable
define dso_local ptr @callReplyGetSetElement(ptr noundef %0, i64 noundef %1) local_unnamed_addr #0 {
  %3 = alloca %struct.ReplyParser, align 8
  %4 = getelementptr inbounds nuw i8, ptr %0, i64 36
  %5 = load i32, ptr %4, align 4, !tbaa !5
  %6 = and i32 %5, 2
  %.not.i = icmp eq i32 %6, 0
  br i1 %.not.i, label %7, label %callReplyParse.exit

7:                                                ; preds = %2
  call void @llvm.lifetime.start.p0(i64 136, ptr nonnull %3) #8
  %8 = getelementptr inbounds nuw i8, ptr %0, i64 16
  %9 = load ptr, ptr %8, align 8, !tbaa !25
  store ptr %9, ptr %3, align 8, !tbaa !26
  %10 = getelementptr inbounds nuw i8, ptr %3, i64 8
  call void @llvm.memcpy.p0.p0.i64(ptr noundef nonnull align 8 dereferenceable(128) %10, ptr noundef nonnull align 8 dereferenceable(128) @DefaultParserCallbacks, i64 128, i1 false), !tbaa.struct !29
  %11 = call i32 @parseReply(ptr noundef nonnull %3, ptr noundef nonnull %0) #8
  %12 = load i32, ptr %4, align 4, !tbaa !5
  %13 = or i32 %12, 2
  store i32 %13, ptr %4, align 4, !tbaa !5
  call void @llvm.lifetime.end.p0(i64 136, ptr nonnull %3) #8
  br label %callReplyParse.exit

callReplyParse.exit:                              ; preds = %2, %7
  %14 = getelementptr inbounds nuw i8, ptr %0, i64 32
  %15 = load i32, ptr %14, align 8, !tbaa !15
  %.not = icmp eq i32 %15, 6
  br i1 %.not, label %16, label %callReplyGetCollectionElement.exit

16:                                               ; preds = %callReplyParse.exit
  %17 = getelementptr inbounds nuw i8, ptr %0, i64 40
  %18 = load i64, ptr %17, align 8, !tbaa !18
  %.not.i4 = icmp ult i64 %1, %18
  br i1 %.not.i4, label %19, label %callReplyGetCollectionElement.exit

19:                                               ; preds = %16
  %20 = getelementptr inbounds nuw i8, ptr %0, i64 48
  %21 = load ptr, ptr %20, align 8, !tbaa !19
  %22 = getelementptr inbounds nuw %struct.CallReply, ptr %21, i64 %1
  br label %callReplyGetCollectionElement.exit

callReplyGetCollectionElement.exit:               ; preds = %19, %16, %callReplyParse.exit
  %.0 = phi ptr [ null, %callReplyParse.exit ], [ %22, %19 ], [ null, %16 ]
  ret ptr %.0
}